	.file	"main.c"
	.option nopic
	.attribute arch, "rv32i2p1_m2p0_zicsr2p0"
	.attribute unaligned_access, 0
	.attribute stack_align, 16
	.text
.Ltext0:
	.cfi_sections	.debug_frame
	.file 0 "/home/romeroa/Documents/project_ace_vexriscv_murax/sw/murax/PMP_example" "src/main.c"
	.align	2
	.globl	print
	.type	print, @function
print:
.LFB7:
	.file 1 "src/main.c"
	.loc 1 6 1
	.cfi_startproc
.LVL0:
	.loc 1 7 3
.LBB10:
.LBB11:
.LBB12:
.LBB13:
	.file 2 "src/uart.h"
	.loc 2 24 13 is_stmt 0
	li	a4,-268369920
.L2:
.LBE13:
.LBE12:
.LBE11:
.LBE10:
	.loc 1 7 9 is_stmt 1
	lbu	a5,0(a0)
	bne	a5,zero,.L3
	.loc 1 11 1 is_stmt 0
	ret
.L3:
.LBB17:
.LBB16:
	.loc 2 31 36 is_stmt 1 discriminator 1
.LVL1:
.LBB15:
.LBB14:
	.loc 2 24 2
	.loc 2 24 13 is_stmt 0
	lw	a3,4(a4)
.LVL2:
.LBE14:
.LBE15:
	.loc 2 31 36 discriminator 1
	srli	a2,a3,16
	andi	a2,a2,255
	beq	a2,zero,.L3
	.loc 2 32 2 is_stmt 1
	.loc 2 32 12 is_stmt 0
	sw	a5,0(a4)
.LBE16:
.LBE17:
	.loc 1 9 5 is_stmt 1
	.loc 1 9 8 is_stmt 0
	addi	a0,a0,1
.LVL3:
	j	.L2
	.cfi_endproc
.LFE7:
	.size	print, .-print
	.align	2
	.globl	println
	.type	println, @function
println:
.LFB8:
	.loc 1 13 1 is_stmt 1
	.cfi_startproc
.LVL4:
	.loc 1 14 3
	.loc 1 13 1 is_stmt 0
	addi	sp,sp,-16
	.cfi_def_cfa_offset 16
	sw	ra,12(sp)
	.cfi_offset 1, -4
	.loc 1 14 3
	call	print
.LVL5:
	.loc 1 15 3 is_stmt 1
.LBB22:
.LBB23:
	.loc 2 31 2
.LBB24:
.LBB25:
	.loc 2 24 13 is_stmt 0
	li	a5,-268369920
.L9:
.LBE25:
.LBE24:
	.loc 2 31 36 is_stmt 1 discriminator 1
.LVL6:
.LBB27:
.LBB26:
	.loc 2 24 2
	.loc 2 24 13 is_stmt 0
	lw	a4,4(a5)
.LVL7:
.LBE26:
.LBE27:
	.loc 2 31 36 discriminator 1
	srli	a3,a4,16
	andi	a3,a3,255
	beq	a3,zero,.L9
	.loc 2 32 2 is_stmt 1
	.loc 2 32 12 is_stmt 0
	li	a4,10
	sw	a4,0(a5)
.LVL8:
.LBE23:
.LBE22:
	.loc 1 16 1
	lw	ra,12(sp)
	.cfi_restore 1
	addi	sp,sp,16
	.cfi_def_cfa_offset 0
	jr	ra
	.cfi_endproc
.LFE8:
	.size	println, .-println
	.align	2
	.globl	delay
	.type	delay, @function
delay:
.LFB9:
	.loc 1 19 1 is_stmt 1
	.cfi_startproc
.LVL9:
	.loc 1 20 3
.LBB28:
	.loc 1 20 7
	.loc 1 20 11 is_stmt 0
	li	a5,0
.LBB29:
	.loc 1 22 21
	li	a4,-268435456
.LVL10:
.L15:
.LBE29:
	.loc 1 20 16 is_stmt 1 discriminator 1
	bne	a5,a0,.L16
.LBE28:
	.loc 1 24 1 is_stmt 0
	ret
.L16:
.LBB31:
.LBB30:
	.loc 1 22 5 is_stmt 1
	.loc 1 22 21 is_stmt 0
	lw	a3,4(a4)
.LBE30:
	.loc 1 20 24 is_stmt 1 discriminator 3
	addi	a5,a5,1
.LVL11:
	j	.L15
.LBE31:
	.cfi_endproc
.LFE9:
	.size	delay, .-delay
	.section	.rodata.str1.4,"aMS",@progbits,1
	.align	2
.LC0:
	.string	"You got hacked :)"
	.text
	.align	2
	.globl	foo
	.type	foo, @function
foo:
.LFB10:
	.loc 1 27 11
	.cfi_startproc
	.loc 1 28 5
	lui	a0,%hi(.LC0)
	addi	a0,a0,%lo(.LC0)
	tail	println
.LVL12:
	.cfi_endproc
.LFE10:
	.size	foo, .-foo
	.section	.rodata.str1.4
	.align	2
.LC1:
	.string	"WELCOME TO THE RISCV HELLO WORLD UART PROGRAM!!"
	.section	.text.startup,"ax",@progbits
	.align	2
	.globl	main
	.type	main, @function
main:
.LFB11:
	.loc 1 31 13
	.cfi_startproc
	.loc 1 32 5
.LVL13:
	.loc 1 33 5
	.loc 1 34 5
	lui	a0,%hi(.LC1)
	.loc 1 31 13 is_stmt 0
	addi	sp,sp,-32
	.cfi_def_cfa_offset 32
	.loc 1 34 5
	addi	a0,a0,%lo(.LC1)
	.loc 1 31 13
	sw	ra,28(sp)
	sw	s0,24(sp)
	sw	s1,20(sp)
	sw	s2,16(sp)
	sw	s3,12(sp)
	sw	s4,8(sp)
	sw	s5,4(sp)
	sw	s6,0(sp)
	.cfi_offset 1, -4
	.cfi_offset 8, -8
	.cfi_offset 9, -12
	.cfi_offset 18, -16
	.cfi_offset 19, -20
	.cfi_offset 20, -24
	.cfi_offset 21, -28
	.cfi_offset 22, -32
	.loc 1 34 5
	call	println
.LVL14:
	.loc 1 36 5 is_stmt 1
	.loc 1 36 27 is_stmt 0
	li	a5,65536
	li	a4,-268435456
	addi	a5,a5,-1
	sw	a5,8(a4)
	.loc 1 37 5 is_stmt 1
	.loc 1 39 5 is_stmt 0
	li	a0,90001408
	.loc 1 37 20
	sw	a5,4(a4)
	.loc 1 39 5 is_stmt 1
	addi	a0,a0,-1408
	.loc 1 55 7 is_stmt 0
	li	s2,200704
	.loc 1 39 5
	call	delay
.LVL15:
	.loc 1 32 10
	li	s0,32
.LBB44:
.LBB45:
.LBB46:
.LBB47:
	.loc 2 24 13
	li	s1,-268369920
.LBE47:
.LBE46:
.LBE45:
.LBE44:
	.loc 1 46 9
	li	s4,127
.LBB52:
.LBB53:
	.loc 2 32 12
	li	s5,10
.LBE53:
.LBE52:
.LBB57:
.LBB58:
	li	s6,13
.LBE58:
.LBE57:
	.loc 1 53 30
	li	s3,-268435456
	.loc 1 55 7
	addi	s2,s2,-704
.LVL16:
.L19:
.LBB62:
.LBB50:
	.loc 2 31 36 is_stmt 1 discriminator 1
.LBB49:
.LBB48:
	.loc 2 24 2
	.loc 2 24 13 is_stmt 0
	lw	a5,4(s1)
.LVL17:
.LBE48:
.LBE49:
	.loc 2 31 36 discriminator 1
	srli	a4,a5,16
	andi	a4,a4,255
	beq	a4,zero,.L19
	.loc 2 32 2 is_stmt 1
	.loc 2 32 12 is_stmt 0
	sw	s0,0(s1)
.LBE50:
.LBE62:
	.loc 1 44 7 is_stmt 1
	.loc 1 44 11 is_stmt 0
	addi	s0,s0,1
	andi	s0,s0,0xff
.LVL18:
	.loc 1 46 7 is_stmt 1
	.loc 1 46 9 is_stmt 0
	bne	s0,s4,.L20
.L21:
.LBB63:
.LBB56:
	.loc 2 31 36 is_stmt 1 discriminator 1
.LVL19:
.LBB54:
.LBB55:
	.loc 2 24 2
	.loc 2 24 13 is_stmt 0
	lw	a5,4(s1)
.LVL20:
.LBE55:
.LBE54:
	.loc 2 31 36 discriminator 1
	srli	a4,a5,16
	andi	a4,a4,255
	beq	a4,zero,.L21
	.loc 2 32 2 is_stmt 1
	.loc 2 32 12 is_stmt 0
	sw	s5,0(s1)
.LBE56:
.LBE63:
	.loc 1 49 9 is_stmt 1
.LVL21:
.LBB64:
.LBB61:
	.loc 2 31 2
.L22:
	.loc 2 31 36 discriminator 1
.LBB59:
.LBB60:
	.loc 2 24 2
	.loc 2 24 13 is_stmt 0
	lw	a5,4(s1)
.LVL22:
.LBE60:
.LBE59:
	.loc 2 31 36 discriminator 1
	srli	a4,a5,16
	andi	a4,a4,255
	beq	a4,zero,.L22
	.loc 2 32 2 is_stmt 1
	.loc 2 32 12 is_stmt 0
	sw	s6,0(s1)
.LVL23:
.LBE61:
.LBE64:
	.loc 1 50 9 is_stmt 1
	.loc 1 50 14 is_stmt 0
	li	s0,32
.LVL24:
.L20:
	.loc 1 53 7 is_stmt 1
	.loc 1 53 30 is_stmt 0
	lw	a5,0(s3)
	.loc 1 55 7
	mv	a0,s2
	.loc 1 53 22
	sw	a5,4(s3)
	.loc 1 55 7 is_stmt 1
	call	delay
.LVL25:
	.loc 1 41 5
	.loc 1 41 5
	.loc 1 43 7
.LBB65:
.LBB51:
	.loc 2 31 2
.LBE51:
.LBE65:
	.loc 1 43 7 is_stmt 0
	j	.L19
	.cfi_endproc
.LFE11:
	.size	main, .-main
	.text
	.align	2
	.globl	irqCallback
	.type	irqCallback, @function
irqCallback:
.LFB12:
	.loc 1 60 1 is_stmt 1
	.cfi_startproc
	.loc 1 61 1
	ret
	.cfi_endproc
.LFE12:
	.size	irqCallback, .-irqCallback
.Letext0:
	.file 3 "/home/romeroa/Documents/project_ace_vexriscv_murax/sw/bin/riscv/riscv32-unknown-elf/include/machine/_default_types.h"
	.file 4 "/home/romeroa/Documents/project_ace_vexriscv_murax/sw/bin/riscv/riscv32-unknown-elf/include/sys/_stdint.h"
	.file 5 "src/gpio.h"